target datalayout = "e-m:e-p270:32:32-p271:32:32-p272:64:64-i64:64-i128:128-f80:128-n8:16:32:64-S128"
target triple = "x86_64-pc-linux-gnu"

%"class.zxing::Ref" = type { ptr }

; Function Attrs: mustprogress nounwind uwtable
define linkonce_odr hidden noundef ptr @_ZNK5zxing3RefINS_11ResultPointEEptEv(ptr noundef nonnull align 8 dereferenceable(8) %0) #1 comdat align 2 {
  %2 = alloca ptr, align 8
  store ptr %0, ptr %2, align 8, !tbaa !21
  %3 = load ptr, ptr %2, align 8
  %4 = getelementptr inbounds nuw %"class.zxing::Ref", ptr %3, i32 0, i32 0
  %5 = load ptr, ptr %4, align 8, !tbaa !23
  ret ptr %5
}

; Function Attrs: mustprogress uwtable
define hidden noundef float @_ZN5zxing11ResultPoint13crossProductZENS_3RefIS0_EES2_S2_(ptr noundef %0, ptr noundef %1, ptr noundef %2) #0 align 2 {
  %4 = alloca ptr, align 8
  %5 = alloca ptr, align 8
  %6 = alloca ptr, align 8
  %7 = alloca float, align 4
  %8 = alloca float, align 4
  store ptr %0, ptr %4, align 8, !tbaa !21
  store ptr %1, ptr %5, align 8, !tbaa !21
  store ptr %2, ptr %6, align 8, !tbaa !21
  call void @llvm.lifetime.start.p0(i64 4, ptr %7) #7
  %9 = call noundef ptr @_ZNK5zxing3RefINS_11ResultPointEEptEv(ptr noundef nonnull align 8 dereferenceable(8) %1)
  %10 = load ptr, ptr %9, align 8, !tbaa !8
  %11 = getelementptr inbounds ptr, ptr %10, i64 2
  %12 = load ptr, ptr %11, align 8
  %13 = call noundef float %12(ptr noundef nonnull align 8 dereferenceable(20) %9)
  store float %13, ptr %7, align 4, !tbaa !19
  call void @llvm.lifetime.start.p0(i64 4, ptr %8) #7
  %14 = call noundef ptr @_ZNK5zxing3RefINS_11ResultPointEEptEv(ptr noundef nonnull align 8 dereferenceable(8) %1)
  %15 = load ptr, ptr %14, align 8, !tbaa !8
  %16 = getelementptr inbounds ptr, ptr %15, i64 3
  %17 = load ptr, ptr %16, align 8
  %18 = call noundef float %17(ptr noundef nonnull align 8 dereferenceable(20) %14)
  store float %18, ptr %8, align 4, !tbaa !19
  %19 = call noundef ptr @_ZNK5zxing3RefINS_11ResultPointEEptEv(ptr noundef nonnull align 8 dereferenceable(8) %2)
  %20 = load ptr, ptr %19, align 8, !tbaa !8
  %21 = getelementptr inbounds ptr, ptr %20, i64 2
  %22 = load ptr, ptr %21, align 8
  %23 = call noundef float %22(ptr noundef nonnull align 8 dereferenceable(20) %19)
  %24 = load float, ptr %7, align 4, !tbaa !19
  %25 = fsub float %23, %24
  %26 = call noundef ptr @_ZNK5zxing3RefINS_11ResultPointEEptEv(ptr noundef nonnull align 8 dereferenceable(8) %0)
  %27 = load ptr, ptr %26, align 8, !tbaa !8
  %28 = getelementptr inbounds ptr, ptr %27, i64 3
  %29 = load ptr, ptr %28, align 8
  %30 = call noundef float %29(ptr noundef nonnull align 8 dereferenceable(20) %26)
  %31 = load float, ptr %8, align 4, !tbaa !19
  %32 = fsub float %30, %31
  %33 = call noundef ptr @_ZNK5zxing3RefINS_11ResultPointEEptEv(ptr noundef nonnull align 8 dereferenceable(8) %2)
  %34 = load ptr, ptr %33, align 8, !tbaa !8
  %35 = getelementptr inbounds ptr, ptr %34, i64 3
  %36 = load ptr, ptr %35, align 8
  %37 = call noundef float %36(ptr noundef nonnull align 8 dereferenceable(20) %33)
  %38 = load float, ptr %8, align 4, !tbaa !19
  %39 = fsub float %37, %38
  %40 = call noundef ptr @_ZNK5zxing3RefINS_11ResultPointEEptEv(ptr noundef nonnull align 8 dereferenceable(8) %0)
  %41 = load ptr, ptr %40, align 8, !tbaa !8
  %42 = getelementptr inbounds ptr, ptr %41, i64 2
  %43 = load ptr, ptr %42, align 8
  %44 = call noundef float %43(ptr noundef nonnull align 8 dereferenceable(20) %40)
  %45 = load float, ptr %7, align 4, !tbaa !19
  %46 = fsub float %44, %45
  %47 = fmul float %39, %46
  %48 = fneg float %47
  %49 = call float @llvm.fmuladd.f32(float %25, float %32, float %48)
  call void @llvm.lifetime.end.p0(i64 4, ptr %8) #7
  call void @llvm.lifetime.end.p0(i64 4, ptr %7) #7
  ret float %49
}