; Function Attrs: mustprogress uwtable
define hidden noundef float @_ZN5zxing11ResultPoint13crossProductZENS_3RefIS0_EES2_S2_(ptr noundef readonly captures(none) %0, ptr noundef readonly captures(none) %1, ptr noundef readonly captures(none) %2) local_unnamed_addr #5 align 2 {
  %4 = load ptr, ptr %1, align 8, !tbaa !14
  %5 = load ptr, ptr %4, align 8, !tbaa !8
  %6 = getelementptr inbounds nuw i8, ptr %5, i64 16
  %7 = load ptr, ptr %6, align 8
  %8 = tail call noundef float %7(ptr noundef nonnull align 8 dereferenceable(20) %4)
  %9 = load ptr, ptr %1, align 8, !tbaa !14
  %10 = load ptr, ptr %9, align 8, !tbaa !8
  %11 = getelementptr inbounds nuw i8, ptr %10, i64 24
  %12 = load ptr, ptr %11, align 8
  %13 = tail call noundef float %12(ptr noundef nonnull align 8 dereferenceable(20) %9)
  %14 = load ptr, ptr %2, align 8, !tbaa !14
  %15 = load ptr, ptr %14, align 8, !tbaa !8
  %16 = getelementptr inbounds nuw i8, ptr %15, i64 16
  %17 = load ptr, ptr %16, align 8
  %18 = tail call noundef float %17(ptr noundef nonnull align 8 dereferenceable(20) %14)
  %19 = fsub float %18, %8
  %20 = load ptr, ptr %0, align 8, !tbaa !14
  %21 = load ptr, ptr %20, align 8, !tbaa !8
  %22 = getelementptr inbounds nuw i8, ptr %21, i64 24
  %23 = load ptr, ptr %22, align 8
  %24 = tail call noundef float %23(ptr noundef nonnull align 8 dereferenceable(20) %20)
  %25 = fsub float %24, %13
  %26 = load ptr, ptr %2, align 8, !tbaa !14
  %27 = load ptr, ptr %26, align 8, !tbaa !8
  %28 = getelementptr inbounds nuw i8, ptr %27, i64 24
  %29 = load ptr, ptr %28, align 8
  %30 = tail call noundef float %29(ptr noundef nonnull align 8 dereferenceable(20) %26)
  %31 = fsub float %30, %13
  %32 = load ptr, ptr %0, align 8, !tbaa !14
  %33 = load ptr, ptr %32, align 8, !tbaa !8
  %34 = getelementptr inbounds nuw i8, ptr %33, i64 16
  %35 = load ptr, ptr %34, align 8
  %36 = tail call noundef float %35(ptr noundef nonnull align 8 dereferenceable(20) %32)
  %37 = fsub float %36, %8
  %38 = fneg float %37
  %39 = fmul float %31, %38
  %40 = tail call float @llvm.fmuladd.f32(float %19, float %25, float %39)
  ret float %40
}